; Function Attrs: mustprogress uwtable
define hidden noundef range(i32 0, 2) i32 @_ZN10sls_engineclEv(ptr noundef nonnull align 8 dereferenceable(1496) %0) local_unnamed_addr #3 align 2 {
  %2 = getelementptr inbounds nuw i8, ptr %0, i64 768
  %3 = getelementptr inbounds nuw i8, ptr %0, i64 1432
  tail call void @_ZN11sls_tracker10initializeERK10ptr_vectorI4exprE(ptr noundef nonnull align 8 dereferenceable(400) %2, ptr noundef nonnull align 8 dereferenceable(8) %3)
  tail call void @_ZN11sls_tracker5resetERK10ptr_vectorI4exprE(ptr noundef nonnull align 8 dereferenceable(400) %2, ptr noundef nonnull align 8 dereferenceable(8) %3)
  %4 = getelementptr inbounds nuw i8, ptr %0, i64 1480
  %5 = load i32, ptr %4, align 8, !tbaa !192
  %.not = icmp eq i32 %5, 0
  br i1 %.not, label %7, label %6

6:                                                ; preds = %1
  tail call void @_ZN11sls_tracker9randomizeERK10ptr_vectorI4exprE(ptr noundef nonnull align 8 dereferenceable(400) %2, ptr noundef nonnull align 8 dereferenceable(8) %3)
  br label %7

7:                                                ; preds = %6, %1
  %8 = tail call noundef i32 @_ZN10sls_engine11search_loopEv(ptr noundef nonnull align 8 dereferenceable(1496) %0)
  ret i32 %8
}